target datalayout = "e-m:e-p270:32:32-p271:32:32-p272:64:64-i64:64-i128:128-f80:128-n8:16:32:64-S128"
target triple = "x86_64-pc-linux-gnu"

%struct.JNINativeInterface_ = type { ptr, ptr, ptr, ptr, ptr, ptr, ptr, ptr, ptr, ptr, ptr, ptr, ptr, ptr, ptr, ptr, ptr, ptr, ptr, ptr, ptr, ptr, ptr, ptr, ptr, ptr, ptr, ptr, ptr, ptr, ptr, ptr, ptr, ptr, ptr, ptr, ptr, ptr, ptr, ptr, ptr, ptr, ptr, ptr, ptr, ptr, ptr, ptr, ptr, ptr, ptr, ptr, ptr, ptr, ptr, ptr, ptr, ptr, ptr, ptr, ptr, ptr, ptr, ptr, ptr, ptr, ptr, ptr, ptr, ptr, ptr, ptr, ptr, ptr, ptr, ptr, ptr, ptr, ptr, ptr, ptr, ptr, ptr, ptr, ptr, ptr, ptr, ptr, ptr, ptr, ptr, ptr, ptr, ptr, ptr, ptr, ptr, ptr, ptr, ptr, ptr, ptr, ptr, ptr, ptr, ptr, ptr, ptr, ptr, ptr, ptr, ptr, ptr, ptr, ptr, ptr, ptr, ptr, ptr, ptr, ptr, ptr, ptr, ptr, ptr, ptr, ptr, ptr, ptr, ptr, ptr, ptr, ptr, ptr, ptr, ptr, ptr, ptr, ptr, ptr, ptr, ptr, ptr, ptr, ptr, ptr, ptr, ptr, ptr, ptr, ptr, ptr, ptr, ptr, ptr, ptr, ptr, ptr, ptr, ptr, ptr, ptr, ptr, ptr, ptr, ptr, ptr, ptr, ptr, ptr, ptr, ptr, ptr, ptr, ptr, ptr, ptr, ptr, ptr, ptr, ptr, ptr, ptr, ptr, ptr, ptr, ptr, ptr, ptr, ptr, ptr, ptr, ptr, ptr, ptr, ptr, ptr, ptr, ptr, ptr, ptr, ptr, ptr, ptr, ptr, ptr, ptr, ptr, ptr, ptr, ptr, ptr, ptr, ptr, ptr, ptr, ptr, ptr, ptr, ptr, ptr, ptr, ptr, ptr, ptr, ptr, ptr, ptr, ptr, ptr, ptr, ptr, ptr, ptr, ptr }

@awt_display = external global ptr, align 8
@jvm = external global ptr, align 8
@tkClass = external global ptr, align 8
@awtLockMID = external global ptr, align 8
@awtUnlockMID = external global ptr, align 8

; Function Attrs: nounwind uwtable
define i32 @AWTCountFonts(ptr noundef %0) #0 {
  %2 = alloca ptr, align 8
  %3 = alloca ptr, align 8
  %4 = alloca i32, align 4
  %5 = alloca ptr, align 8
  %6 = alloca ptr, align 8
  store ptr %0, ptr %2, align 8
  %7 = load ptr, ptr @jvm, align 8
  %8 = call ptr @JNU_GetEnv(ptr noundef %7, i32 noundef 65538)
  store ptr %8, ptr %5, align 8
  br label %9

9:                                                ; preds = %1
  %10 = load ptr, ptr %5, align 8
  %11 = load ptr, ptr %10, align 8
  %12 = getelementptr inbounds %struct.JNINativeInterface_, ptr %11, i32 0, i32 228
  %13 = load ptr, ptr %12, align 8
  %14 = load ptr, ptr %5, align 8
  %15 = call zeroext i8 %13(ptr noundef %14)
  %16 = icmp ne i8 %15, 0
  br i1 %16, label %17, label %23

17:                                               ; preds = %9
  %18 = load ptr, ptr %5, align 8
  %19 = load ptr, ptr %18, align 8
  %20 = getelementptr inbounds %struct.JNINativeInterface_, ptr %19, i32 0, i32 17
  %21 = load ptr, ptr %20, align 8
  %22 = load ptr, ptr %5, align 8
  call void %21(ptr noundef %22)
  br label %23

23:                                               ; preds = %17, %9
  %24 = load ptr, ptr %5, align 8
  %25 = load ptr, ptr %24, align 8
  %26 = getelementptr inbounds %struct.JNINativeInterface_, ptr %25, i32 0, i32 141
  %27 = load ptr, ptr %26, align 8
  %28 = load ptr, ptr %5, align 8
  %29 = load ptr, ptr @tkClass, align 8
  %30 = load ptr, ptr @awtLockMID, align 8
  call void (ptr, ptr, ptr, ...) %27(ptr noundef %28, ptr noundef %29, ptr noundef %30)
  %31 = load ptr, ptr %5, align 8
  %32 = load ptr, ptr %31, align 8
  %33 = getelementptr inbounds %struct.JNINativeInterface_, ptr %32, i32 0, i32 228
  %34 = load ptr, ptr %33, align 8
  %35 = load ptr, ptr %5, align 8
  %36 = call zeroext i8 %34(ptr noundef %35)
  %37 = icmp ne i8 %36, 0
  br i1 %37, label %38, label %44

38:                                               ; preds = %23
  %39 = load ptr, ptr %5, align 8
  %40 = load ptr, ptr %39, align 8
  %41 = getelementptr inbounds %struct.JNINativeInterface_, ptr %40, i32 0, i32 17
  %42 = load ptr, ptr %41, align 8
  %43 = load ptr, ptr %5, align 8
  call void %42(ptr noundef %43)
  br label %44

44:                                               ; preds = %38, %23
  br label %45

45:                                               ; preds = %44
  %46 = load ptr, ptr @awt_display, align 8
  %47 = load ptr, ptr %2, align 8
  %48 = call ptr @XListFonts(ptr noundef %46, ptr noundef %47, i32 noundef 3, ptr noundef %4)
  store ptr %48, ptr %3, align 8
  %49 = load ptr, ptr %3, align 8
  %50 = call i32 @XFreeFontNames(ptr noundef %49)
  br label %51

51:                                               ; preds = %45
  call void (...) @awt_output_flush()
  br label %52

52:                                               ; preds = %51
  %53 = load ptr, ptr %5, align 8
  %54 = load ptr, ptr %53, align 8
  %55 = getelementptr inbounds %struct.JNINativeInterface_, ptr %54, i32 0, i32 15
  %56 = load ptr, ptr %55, align 8
  %57 = load ptr, ptr %5, align 8
  %58 = call ptr %56(ptr noundef %57)
  store ptr %58, ptr %6, align 8
  %59 = icmp ne ptr %58, null
  br i1 %59, label %60, label %66

60:                                               ; preds = %52
  %61 = load ptr, ptr %5, align 8
  %62 = load ptr, ptr %61, align 8
  %63 = getelementptr inbounds %struct.JNINativeInterface_, ptr %62, i32 0, i32 17
  %64 = load ptr, ptr %63, align 8
  %65 = load ptr, ptr %5, align 8
  call void %64(ptr noundef %65)
  br label %66

66:                                               ; preds = %60, %52
  %67 = load ptr, ptr %5, align 8
  %68 = load ptr, ptr %67, align 8
  %69 = getelementptr inbounds %struct.JNINativeInterface_, ptr %68, i32 0, i32 141
  %70 = load ptr, ptr %69, align 8
  %71 = load ptr, ptr %5, align 8
  %72 = load ptr, ptr @tkClass, align 8
  %73 = load ptr, ptr @awtUnlockMID, align 8
  call void (ptr, ptr, ptr, ...) %70(ptr noundef %71, ptr noundef %72, ptr noundef %73)
  %74 = load ptr, ptr %5, align 8
  %75 = load ptr, ptr %74, align 8
  %76 = getelementptr inbounds %struct.JNINativeInterface_, ptr %75, i32 0, i32 228
  %77 = load ptr, ptr %76, align 8
  %78 = load ptr, ptr %5, align 8
  %79 = call zeroext i8 %77(ptr noundef %78)
  %80 = icmp ne i8 %79, 0
  br i1 %80, label %81, label %87

81:                                               ; preds = %66
  %82 = load ptr, ptr %5, align 8
  %83 = load ptr, ptr %82, align 8
  %84 = getelementptr inbounds %struct.JNINativeInterface_, ptr %83, i32 0, i32 17
  %85 = load ptr, ptr %84, align 8
  %86 = load ptr, ptr %5, align 8
  call void %85(ptr noundef %86)
  br label %87

87:                                               ; preds = %81, %66
  %88 = load ptr, ptr %6, align 8
  %89 = icmp ne ptr %88, null
  br i1 %89, label %90, label %98

90:                                               ; preds = %87
  %91 = load ptr, ptr %5, align 8
  %92 = load ptr, ptr %91, align 8
  %93 = getelementptr inbounds %struct.JNINativeInterface_, ptr %92, i32 0, i32 13
  %94 = load ptr, ptr %93, align 8
  %95 = load ptr, ptr %5, align 8
  %96 = load ptr, ptr %6, align 8
  %97 = call i32 %94(ptr noundef %95, ptr noundef %96)
  br label %98

98:                                               ; preds = %90, %87
  br label %99

99:                                               ; preds = %98
  br label %100

100:                                              ; preds = %99
  %101 = load i32, ptr %4, align 4
  ret i32 %101
}