; Function Attrs: nounwind uwtable
define i32 @AWTCountFonts(ptr noundef %0) local_unnamed_addr #0 {
  %2 = alloca i32, align 4
  %3 = load ptr, ptr @jvm, align 8
  %4 = tail call ptr @JNU_GetEnv(ptr noundef %3, i32 noundef 65538) #8
  %5 = load ptr, ptr %4, align 8
  %6 = getelementptr inbounds i8, ptr %5, i64 1824
  %7 = load ptr, ptr %6, align 8
  %8 = tail call zeroext i8 %7(ptr noundef nonnull %4) #8
  %.not = icmp eq i8 %8, 0
  br i1 %.not, label %13, label %9

9:                                                ; preds = %1
  %10 = load ptr, ptr %4, align 8
  %11 = getelementptr inbounds i8, ptr %10, i64 136
  %12 = load ptr, ptr %11, align 8
  tail call void %12(ptr noundef nonnull %4) #8
  br label %13

13:                                               ; preds = %9, %1
  %14 = load ptr, ptr %4, align 8
  %15 = getelementptr inbounds i8, ptr %14, i64 1128
  %16 = load ptr, ptr %15, align 8
  %17 = load ptr, ptr @tkClass, align 8
  %18 = load ptr, ptr @awtLockMID, align 8
  tail call void (ptr, ptr, ptr, ...) %16(ptr noundef nonnull %4, ptr noundef %17, ptr noundef %18) #8
  %19 = load ptr, ptr %4, align 8
  %20 = getelementptr inbounds i8, ptr %19, i64 1824
  %21 = load ptr, ptr %20, align 8
  %22 = tail call zeroext i8 %21(ptr noundef nonnull %4) #8
  %.not26 = icmp eq i8 %22, 0
  br i1 %.not26, label %27, label %23

23:                                               ; preds = %13
  %24 = load ptr, ptr %4, align 8
  %25 = getelementptr inbounds i8, ptr %24, i64 136
  %26 = load ptr, ptr %25, align 8
  tail call void %26(ptr noundef nonnull %4) #8
  br label %27

27:                                               ; preds = %13, %23
  %28 = load ptr, ptr @awt_display, align 8
  %29 = call ptr @XListFonts(ptr noundef %28, ptr noundef %0, i32 noundef 3, ptr noundef nonnull %2) #8
  %30 = call i32 @XFreeFontNames(ptr noundef %29) #8
  call void (...) @awt_output_flush() #8
  %31 = load ptr, ptr %4, align 8
  %32 = getelementptr inbounds i8, ptr %31, i64 120
  %33 = load ptr, ptr %32, align 8
  %34 = call ptr %33(ptr noundef nonnull %4) #8
  %.not27 = icmp eq ptr %34, null
  br i1 %.not27, label %39, label %35

35:                                               ; preds = %27
  %36 = load ptr, ptr %4, align 8
  %37 = getelementptr inbounds i8, ptr %36, i64 136
  %38 = load ptr, ptr %37, align 8
  call void %38(ptr noundef nonnull %4) #8
  br label %39

39:                                               ; preds = %35, %27
  %40 = load ptr, ptr %4, align 8
  %41 = getelementptr inbounds i8, ptr %40, i64 1128
  %42 = load ptr, ptr %41, align 8
  %43 = load ptr, ptr @tkClass, align 8
  %44 = load ptr, ptr @awtUnlockMID, align 8
  call void (ptr, ptr, ptr, ...) %42(ptr noundef nonnull %4, ptr noundef %43, ptr noundef %44) #8
  %45 = load ptr, ptr %4, align 8
  %46 = getelementptr inbounds i8, ptr %45, i64 1824
  %47 = load ptr, ptr %46, align 8
  %48 = call zeroext i8 %47(ptr noundef nonnull %4) #8
  %.not28 = icmp eq i8 %48, 0
  br i1 %.not28, label %53, label %49

49:                                               ; preds = %39
  %50 = load ptr, ptr %4, align 8
  %51 = getelementptr inbounds i8, ptr %50, i64 136
  %52 = load ptr, ptr %51, align 8
  call void %52(ptr noundef nonnull %4) #8
  br label %53

53:                                               ; preds = %49, %39
  br i1 %.not27, label %59, label %54

54:                                               ; preds = %53
  %55 = load ptr, ptr %4, align 8
  %56 = getelementptr inbounds i8, ptr %55, i64 104
  %57 = load ptr, ptr %56, align 8
  %58 = call i32 %57(ptr noundef nonnull %4, ptr noundef nonnull %34) #8
  br label %59

59:                                               ; preds = %54, %53
  %60 = load i32, ptr %2, align 4
  ret i32 %60
}